; Function Attrs: mustprogress uwtable
define internal fastcc void @_ZL17title_to_shortcutPKc(ptr dead_on_unwind noalias writable align 8 %0, ptr noundef %1) unnamed_addr #0 personality ptr @__gxx_personality_v0 {
  %3 = alloca %class.QString, align 16
  %4 = alloca %class.QString, align 16
  %5 = alloca %class.QString, align 16
  call void @llvm.lifetime.start.p0(i64 24, ptr nonnull %4)
  %.not.i.i = icmp eq ptr %1, null
  br i1 %.not.i.i, label %_ZN7QStringC2EPKc.exit, label %.split.i.i

.split.i.i:                                       ; preds = %2
  %6 = tail call noundef i64 @strlen(ptr noundef nonnull dereferenceable(1) %1) #15
  br label %_ZN7QStringC2EPKc.exit

_ZN7QStringC2EPKc.exit:                           ; preds = %2, %.split.i.i
  %.sink5.i.i = phi i64 [ %6, %.split.i.i ], [ 0, %2 ]
  call void @_ZN7QString8fromUtf8E14QByteArrayView(ptr dead_on_unwind nonnull writable sret(%class.QString) align 8 %4, i64 %.sink5.i.i, ptr %1)
  %7 = load <2 x ptr>, ptr %4, align 16
  store <2 x ptr> %7, ptr %0, align 8
  %8 = getelementptr inbounds i8, ptr %0, i64 16
  %9 = getelementptr inbounds i8, ptr %4, i64 16
  %10 = load i64, ptr %9, align 16
  store i64 %10, ptr %8, align 8
  call void @llvm.lifetime.end.p0(i64 24, ptr nonnull %4)
  call void @llvm.lifetime.start.p0(i64 24, ptr nonnull %3)
  invoke void @_ZN7QString8fromUtf8E14QByteArrayView(ptr dead_on_unwind nonnull writable sret(%class.QString) align 8 %3, i64 2, ptr nonnull @.str.14)
          to label %11 unwind label %22

11:                                               ; preds = %_ZN7QStringC2EPKc.exit
  %12 = load <2 x ptr>, ptr %3, align 16
  store <2 x ptr> %12, ptr %5, align 16
  %13 = getelementptr inbounds i8, ptr %5, i64 16
  %14 = getelementptr inbounds i8, ptr %3, i64 16
  %15 = load i64, ptr %14, align 16
  store i64 %15, ptr %13, align 16
  call void @llvm.lifetime.end.p0(i64 24, ptr nonnull %3)
  %16 = invoke noundef nonnull align 8 dereferenceable(24) ptr @_ZN7QString7replaceE5QCharRKS_N2Qt15CaseSensitivityE(ptr noundef nonnull align 8 dereferenceable(24) %0, i16 38, ptr noundef nonnull align 8 dereferenceable(24) %5, i32 noundef 1)
          to label %17 unwind label %24

17:                                               ; preds = %11
  %18 = load ptr, ptr %5, align 16
  %.not.i.i.i = icmp eq ptr %18, null
  br i1 %.not.i.i.i, label %_ZN7QStringD2Ev.exit, label %_ZN17QArrayDataPointerIDsE5derefEv.exit.i.i

_ZN17QArrayDataPointerIDsE5derefEv.exit.i.i:      ; preds = %17
  %19 = atomicrmw sub ptr %18, i32 1 seq_cst, align 4
  %.not.i.i8 = icmp eq i32 %19, 1
  br i1 %.not.i.i8, label %20, label %_ZN7QStringD2Ev.exit

20:                                               ; preds = %_ZN17QArrayDataPointerIDsE5derefEv.exit.i.i
  %21 = load ptr, ptr %5, align 16
  call void @_ZN10QArrayData10deallocateEPS_xx(ptr noundef %21, i64 noundef 2, i64 noundef 8) #15
  br label %_ZN7QStringD2Ev.exit

_ZN7QStringD2Ev.exit:                             ; preds = %17, %_ZN17QArrayDataPointerIDsE5derefEv.exit.i.i, %20
  ret void

22:                                               ; preds = %_ZN7QStringC2EPKc.exit
  %23 = landingpad { ptr, i32 }
          cleanup
  br label %_ZN7QStringD2Ev.exit12

24:                                               ; preds = %11
  %25 = landingpad { ptr, i32 }
          cleanup
  %26 = load ptr, ptr %5, align 16
  %.not.i.i.i9 = icmp eq ptr %26, null
  br i1 %.not.i.i.i9, label %_ZN7QStringD2Ev.exit12, label %_ZN17QArrayDataPointerIDsE5derefEv.exit.i.i10

_ZN17QArrayDataPointerIDsE5derefEv.exit.i.i10:    ; preds = %24
  %27 = atomicrmw sub ptr %26, i32 1 seq_cst, align 4
  %.not.i.i11 = icmp eq i32 %27, 1
  br i1 %.not.i.i11, label %28, label %_ZN7QStringD2Ev.exit12

28:                                               ; preds = %_ZN17QArrayDataPointerIDsE5derefEv.exit.i.i10
  %29 = load ptr, ptr %5, align 16
  call void @_ZN10QArrayData10deallocateEPS_xx(ptr noundef %29, i64 noundef 2, i64 noundef 8) #15
  br label %_ZN7QStringD2Ev.exit12

_ZN7QStringD2Ev.exit12:                           ; preds = %28, %_ZN17QArrayDataPointerIDsE5derefEv.exit.i.i10, %24, %22
  %.pn = phi { ptr, i32 } [ %23, %22 ], [ %25, %24 ], [ %25, %_ZN17QArrayDataPointerIDsE5derefEv.exit.i.i10 ], [ %25, %28 ]
  call void @_ZN7QStringD2Ev(ptr noundef nonnull align 8 dereferenceable(24) %0) #15
  resume { ptr, i32 } %.pn
}